EXPORTS
	_ZN17TCchServiceStatus8SetErrorEi @ 1 NONAME
	_ZN17TCchServiceStatus8SetStateE19TCCHSubserviceState @ 2 NONAME
	_ZN17TCchServiceStatusC1Ev @ 3 NONAME
	_ZN17TCchServiceStatusC2Ev @ 4 NONAME
	_ZN4CCch10ConstructLEv @ 5 NONAME
	_ZN4CCch10GetServiceEi @ 6 NONAME
	_ZN4CCch11GetServicesE18TCCHSubserviceTypeR13RPointerArrayI11CCchServiceE @ 7 NONAME
	_ZN4CCch29SetConnectivityDialogsAllowedEi @ 8 NONAME
	_ZN4CCch4NewLEv @ 9 NONAME
	_ZN4CCch5NewLCEv @ 10 NONAME
	_ZN4CCchC1Ev @ 11 NONAME
	_ZN4CCchC2Ev @ 12 NONAME
	_ZN4CCchD0Ev @ 13 NONAME
	_ZN4CCchD1Ev @ 14 NONAME
	_ZN4CCchD2Ev @ 15 NONAME
	_ZNK17TCchServiceStatus5ErrorEv @ 16 NONAME
	_ZNK17TCchServiceStatus5StateEv @ 17 NONAME
	_ZNK4CCch13GetServiceIdsER6RArrayIiE @ 18 NONAME
	_ZNK4CCch26ConnectivityDialogsAllowedEv @ 19 NONAME
	_ZNK4CCch8CchUiApiEv @ 20 NONAME
	_ZTI15CCchServiceImpl @ 21 NONAME ; #<TI>#
	_ZTI18CCchClientObserver @ 22 NONAME ; #<TI>#
	_ZTI4CCch @ 23 NONAME ; #<TI>#
	_ZTI8CCchImpl @ 24 NONAME ; #<TI>#
	_ZTV15CCchServiceImpl @ 25 NONAME ; #<VT>#
	_ZTV18CCchClientObserver @ 26 NONAME ; #<VT>#
	_ZTV4CCch @ 27 NONAME ; #<VT>#
	_ZTV8CCchImpl @ 28 NONAME ; #<VT>#

