EXPORTS
	?ResetServiceId@CCSCEngStartupHandler@@QAEXXZ @ 1 NONAME ; void CCSCEngStartupHandler::ResetServiceId(void)
	?InitializePluginsL@CCSCEngServicePluginHandler@@QAEXXZ @ 2 NONAME ; void CCSCEngServicePluginHandler::InitializePluginsL(void)
	?DoProvisioningL@CCSCEngServicePluginHandler@@QAEXABVTUid@@0@Z @ 3 NONAME ; void CCSCEngServicePluginHandler::DoProvisioningL(class TUid const &, class TUid const &)
	??1CCSCEngConnectionHandler@@UAE@XZ @ 4 NONAME ; CCSCEngConnectionHandler::~CCSCEngConnectionHandler(void)
	?ItemFromPluginInfoArray@CCSCEngUiExtensionPluginHandler@@QAE?AVTUiExtensionPluginInfo@@H@Z @ 5 NONAME ; class TUiExtensionPluginInfo CCSCEngUiExtensionPluginHandler::ItemFromPluginInfoArray(int)
	?InitializePluginsL@CCSCEngUiExtensionPluginHandler@@QAEXXZ @ 6 NONAME ; void CCSCEngUiExtensionPluginHandler::InitializePluginsL(void)
	?SetPresenceReqPrefL@CCSCEngServiceHandler@@QAEXIW4TOnOff@@@Z @ 7 NONAME ; void CCSCEngServiceHandler::SetPresenceReqPrefL(unsigned int, enum TOnOff)
	?ServiceTabViewIdL@CCSCEngServiceHandler@@QAEHI@Z @ 8 NONAME ; int CCSCEngServiceHandler::ServiceTabViewIdL(unsigned int)
	?StopTimer@CCSCEngTimer@@QAEXXZ @ 9 NONAME ; void CCSCEngTimer::StopTimer(void)
	?StartTimer@CCSCEngTimer@@QAEHW4TTimerType@1@@Z @ 10 NONAME ; int CCSCEngTimer::StartTimer(enum CCSCEngTimer::TTimerType)
	?IsPreferredService@CCSCEngServiceHandler@@QBEHI@Z @ 11 NONAME ; int CCSCEngServiceHandler::IsPreferredService(unsigned int) const
	?DisableService@CCSCEngCCHHandler@@QAEHH@Z @ 12 NONAME ; int CCSCEngCCHHandler::DisableService(int)
	?SetHandoverNotifTonePrefL@CCSCEngServiceHandler@@QAEXIW4TOnOff@@@Z @ 13 NONAME ; void CCSCEngServiceHandler::SetHandoverNotifTonePrefL(unsigned int, enum TOnOff)
	?GetServiceBrandIconL@CCSCEngBrandingHandler@@QAEXABVTDesC8@@AAPAVCFbsBitmap@@1H@Z @ 14 NONAME ; void CCSCEngBrandingHandler::GetServiceBrandIconL(class TDesC8 const &, class CFbsBitmap * &, class CFbsBitmap * &, int)
	?GetAllServiceIdsL@CCSCEngServiceHandler@@QAEXAAV?$RArray@I@@@Z @ 15 NONAME ; void CCSCEngServiceHandler::GetAllServiceIdsL(class RArray<unsigned int> &)
	?NewL@CCSCEngStartupHandler@@SAPAV1@XZ @ 16 NONAME ; class CCSCEngStartupHandler * CCSCEngStartupHandler::NewL(void)
	?LaunchUiExtensionL@CCSCEngUiExtensionPluginHandler@@QAEXABVTUid@@0H@Z @ 17 NONAME ; void CCSCEngUiExtensionPluginHandler::LaunchUiExtensionL(class TUid const &, class TUid const &, int)
	?StopListeningConnectionEvents@CCSCEngConnectionHandler@@QAEXXZ @ 18 NONAME ; void CCSCEngConnectionHandler::StopListeningConnectionEvents(void)
	??1CCSCEngBrandingHandler@@UAE@XZ @ 19 NONAME ; CCSCEngBrandingHandler::~CCSCEngBrandingHandler(void)
	?SetVoipAsPrefTelephony@CCSCEngServiceHandler@@QBEHHI@Z @ 20 NONAME ; int CCSCEngServiceHandler::SetVoipAsPrefTelephony(int, unsigned int) const
	?ImSettingsIdL@CCSCEngServiceHandler@@QAEHI@Z @ 21 NONAME ; int CCSCEngServiceHandler::ImSettingsIdL(unsigned int)
	?PresenceReqPrefL@CCSCEngServiceHandler@@QAE?AW4TOnOff@@I@Z @ 22 NONAME ; enum TOnOff CCSCEngServiceHandler::PresenceReqPrefL(unsigned int)
	?ServiceSetupPluginIdL@CCSCEngServiceHandler@@QAEJI@Z @ 23 NONAME ; long CCSCEngServiceHandler::ServiceSetupPluginIdL(unsigned int)
	?IsVccSupportedL@CCSCEngServiceHandler@@QAEHI@Z @ 24 NONAME ; int CCSCEngServiceHandler::IsVccSupportedL(unsigned int)
	?NewLC@CCSCEngServicePluginHandler@@SAPAV1@AAVCEikonEnv@@AAVMCSCEngProvisioningObserver@@AAVCCSCEngServiceHandler@@@Z @ 25 NONAME ; class CCSCEngServicePluginHandler * CCSCEngServicePluginHandler::NewLC(class CEikonEnv &, class MCSCEngProvisioningObserver &, class CCSCEngServiceHandler &)
	?GetConnectionParameter@CCSCEngCCHHandler@@QAEHHW4TCchConnectionParameter@@AAVRBuf16@@@Z @ 26 NONAME ; int CCSCEngCCHHandler::GetConnectionParameter(int, enum TCchConnectionParameter, class RBuf16 &)
	?GetParamAppUid@CCSCEngStartupHandler@@QBE?BVTUid@@XZ @ 27 NONAME ; class TUid const CCSCEngStartupHandler::GetParamAppUid(void) const
	?SetImSettingsIdL@CCSCEngServiceHandler@@QAEXIH@Z @ 28 NONAME ; void CCSCEngServiceHandler::SetImSettingsIdL(unsigned int, int)
	?SetConnectionParameter@CCSCEngCCHHandler@@QAEHHW4TCchConnectionParameter@@ABVTDesC16@@@Z @ 29 NONAME ; int CCSCEngCCHHandler::SetConnectionParameter(int, enum TCchConnectionParameter, class TDesC16 const &)
	?GetParamUrl@CCSCEngStartupHandler@@QBEHAAVTDes16@@@Z @ 30 NONAME ; int CCSCEngStartupHandler::GetParamUrl(class TDes16 &) const
	?NewL@CCSCEngBrandingHandler@@SAPAV1@XZ @ 31 NONAME ; class CCSCEngBrandingHandler * CCSCEngBrandingHandler::NewL(void)
	?StartedFromHomescreen@CCSCEngStartupHandler@@QBEHXZ @ 32 NONAME ; int CCSCEngStartupHandler::StartedFromHomescreen(void) const
	?NewL@CCSCEngServiceHandler@@SAPAV1@PAVMCSCEngServiceObserver@@@Z @ 33 NONAME ; class CCSCEngServiceHandler * CCSCEngServiceHandler::NewL(class MCSCEngServiceObserver *)
	?IsServiceDisabled@CCSCEngCCHHandler@@QAEHH@Z @ 34 NONAME ; int CCSCEngCCHHandler::IsServiceDisabled(int)
	?IsSipVoIPL@CCSCEngServiceHandler@@QAEHI@Z @ 35 NONAME ; int CCSCEngServiceHandler::IsSipVoIPL(unsigned int)
	??1CCSCEngServiceHandler@@UAE@XZ @ 36 NONAME ; CCSCEngServiceHandler::~CCSCEngServiceHandler(void)
	?NewL@CCSCEngUiExtensionPluginHandler@@SAPAV1@AAVCEikonEnv@@AAVMCSCEngUiExtensionObserver@@AAVCCSCEngStartupHandler@@@Z @ 37 NONAME ; class CCSCEngUiExtensionPluginHandler * CCSCEngUiExtensionPluginHandler::NewL(class CEikonEnv &, class MCSCEngUiExtensionObserver &, class CCSCEngStartupHandler &)
	?NewL@CCSCEngTimer@@SAPAV1@AAVMCSCEngTimerObserver@@@Z @ 38 NONAME ; class CCSCEngTimer * CCSCEngTimer::NewL(class MCSCEngTimerObserver &)
	?ServiceNameL@CCSCEngServiceHandler@@QAEABVTDesC16@@I@Z @ 39 NONAME ; class TDesC16 const & CCSCEngServiceHandler::ServiceNameL(unsigned int)
	?StartListeningConnectionEvents@CCSCEngConnectionHandler@@QAEXXZ @ 40 NONAME ; void CCSCEngConnectionHandler::StartListeningConnectionEvents(void)
	?NewL@CCSCEngServicePluginHandler@@SAPAV1@AAVCEikonEnv@@AAVMCSCEngProvisioningObserver@@AAVCCSCEngServiceHandler@@@Z @ 41 NONAME ; class CCSCEngServicePluginHandler * CCSCEngServicePluginHandler::NewL(class CEikonEnv &, class MCSCEngProvisioningObserver &, class CCSCEngServiceHandler &)
	?GetParamServiceId@CCSCEngStartupHandler@@QBEIXZ @ 42 NONAME ; unsigned int CCSCEngStartupHandler::GetParamServiceId(void) const
	?PluginCount@CCSCEngUiExtensionPluginHandler@@QBEHXZ @ 43 NONAME ; int CCSCEngUiExtensionPluginHandler::PluginCount(void) const
	?SetStartupParametersL@CCSCEngStartupHandler@@QAEHABVTDesC16@@@Z @ 44 NONAME ; int CCSCEngStartupHandler::SetStartupParametersL(class TDesC16 const &)
	?ServiceIdCountL@CCSCEngServiceHandler@@QAEHXZ @ 45 NONAME ; int CCSCEngServiceHandler::ServiceIdCountL(void)
	?NewL@CCSCEngDestinationsHandler@@SAPAV1@XZ @ 46 NONAME ; class CCSCEngDestinationsHandler * CCSCEngDestinationsHandler::NewL(void)
	??1CCSCEngDestinationsHandler@@UAE@XZ @ 47 NONAME ; CCSCEngDestinationsHandler::~CCSCEngDestinationsHandler(void)
	?NewL@CCSCEngConnectionHandler@@SAPAV1@AAVMCSCEngConnectionObserver@@@Z @ 48 NONAME ; class CCSCEngConnectionHandler * CCSCEngConnectionHandler::NewL(class MCSCEngConnectionObserver &)
	?HandoverNotifTonePrefL@CCSCEngServiceHandler@@QAE?AW4TOnOff@@I@Z @ 49 NONAME ; enum TOnOff CCSCEngServiceHandler::HandoverNotifTonePrefL(unsigned int)
	?NewL@CCSCEngCCHHandler@@SAPAV1@AAVMCSCEngCCHObserver@@@Z @ 50 NONAME ; class CCSCEngCCHHandler * CCSCEngCCHHandler::NewL(class MCSCEngCCHObserver &)
	?GetParamPluginUid@CCSCEngStartupHandler@@QBE?BVTUid@@XZ @ 51 NONAME ; class TUid const CCSCEngStartupHandler::GetParamPluginUid(void) const
	?SnapIdL@CCSCEngServiceHandler@@QAEHI@Z @ 52 NONAME ; int CCSCEngServiceHandler::SnapIdL(unsigned int)
	?SetStartedFromHomescreen@CCSCEngStartupHandler@@QAEXH@Z @ 53 NONAME ; void CCSCEngStartupHandler::SetStartedFromHomescreen(int)
	?ItemFromPluginInfoArray@CCSCEngServicePluginHandler@@QAE?AVTServicePluginInfo@@H@Z @ 54 NONAME ; class TServicePluginInfo CCSCEngServicePluginHandler::ItemFromPluginInfoArray(int)
	?SupportedSubServicesL@CCSCEngCCHHandler@@QAEXHAAVTSupportedSubServices@@@Z @ 55 NONAME ; void CCSCEngCCHHandler::SupportedSubServicesL(int, class TSupportedSubServices &)
	?SnapNameL@CCSCEngDestinationsHandler@@QAEPAVHBufC16@@K@Z @ 56 NONAME ; class HBufC16 * CCSCEngDestinationsHandler::SnapNameL(unsigned long)
	?LaunchPluginViewL@CCSCEngServicePluginHandler@@QAEXABVTUid@@0@Z @ 57 NONAME ; void CCSCEngServicePluginHandler::LaunchPluginViewL(class TUid const &, class TUid const &)
	?DeleteServiceL@CCSCEngServiceHandler@@QAEXI@Z @ 58 NONAME ; void CCSCEngServiceHandler::DeleteServiceL(unsigned int)
	??1CCSCEngTimer@@UAE@XZ @ 59 NONAME ; CCSCEngTimer::~CCSCEngTimer(void)
	?IsPreferredTelephonyVoip@CCSCEngServiceHandler@@QBEHXZ @ 60 NONAME ; int CCSCEngServiceHandler::IsPreferredTelephonyVoip(void) const
	?ResetUid@CCSCEngStartupHandler@@QAEXW4TUidType@1@@Z @ 61 NONAME ; void CCSCEngStartupHandler::ResetUid(enum CCSCEngStartupHandler::TUidType)
	?GetConnectionParameter@CCSCEngCCHHandler@@QAEHHW4TCchConnectionParameter@@AAH@Z @ 62 NONAME ; int CCSCEngCCHHandler::GetConnectionParameter(int, enum TCchConnectionParameter, int &)
	?NewLC@CCSCEngUiExtensionPluginHandler@@SAPAV1@AAVCEikonEnv@@AAVMCSCEngUiExtensionObserver@@AAVCCSCEngStartupHandler@@@Z @ 63 NONAME ; class CCSCEngUiExtensionPluginHandler * CCSCEngUiExtensionPluginHandler::NewLC(class CEikonEnv &, class MCSCEngUiExtensionObserver &, class CCSCEngStartupHandler &)
	?GetParamAction@CCSCEngStartupHandler@@QBE?AW4TAction@1@XZ @ 64 NONAME ; enum CCSCEngStartupHandler::TAction CCSCEngStartupHandler::GetParamAction(void) const
	?PluginCount@CCSCEngServicePluginHandler@@QBEHW4TPluginCount@1@@Z @ 65 NONAME ; int CCSCEngServicePluginHandler::PluginCount(enum CCSCEngServicePluginHandler::TPluginCount) const
	?BrandIdL@CCSCEngServiceHandler@@QAEXIAAVTDes16@@@Z @ 66 NONAME ; void CCSCEngServiceHandler::BrandIdL(unsigned int, class TDes16 &)
	?IsServiceValidL@CCSCEngCCHHandler@@QAEHH@Z @ 67 NONAME ; int CCSCEngCCHHandler::IsServiceValidL(int)
	?IsSnapInUseL@CCSCEngDestinationsHandler@@QAEHK@Z @ 68 NONAME ; int CCSCEngDestinationsHandler::IsSnapInUseL(unsigned long)
	?AvailableSnapIdsL@CCSCEngDestinationsHandler@@QAEXAAV?$RArray@K@@@Z @ 69 NONAME ; void CCSCEngDestinationsHandler::AvailableSnapIdsL(class RArray<unsigned long> &)
	?DoRemovationL@CCSCEngServicePluginHandler@@QAEXABVTUid@@H@Z @ 70 NONAME ; void CCSCEngServicePluginHandler::DoRemovationL(class TUid const &, int)

