EXPORTS
	?ActiveIndex@CAcpController@@QBEHXZ @ 1 NONAME ; int CAcpController::ActiveIndex(void) const
	?CancelHttpRequest@CAcpController@@QAEXXZ @ 2 NONAME ; void CAcpController::CancelHttpRequest(void)
	?CountOfProviders@CAcpController@@QBEHXZ @ 3 NONAME ; int CAcpController::CountOfProviders(void) const
	?FetchActionFileL@CAcpController@@QAEXABVTDesC8@@@Z @ 4 NONAME ; void CAcpController::FetchActionFileL(class TDesC8 const &)
	?FetchIconFileFromNetworkL@CAcpController@@QAEXAAVTDesC8@@@Z @ 5 NONAME ; void CAcpController::FetchIconFileFromNetworkL(class TDesC8 &)
	?FetchParametersL@CAcpController@@QAEXAAVTDes16@@@Z @ 6 NONAME ; void CAcpController::FetchParametersL(class TDes16 &)
	?FetchProviderListFromNetworkL@CAcpController@@QAEXXZ @ 7 NONAME ; void CAcpController::FetchProviderListFromNetworkL(void)
	?FetchSisFileFromNetworkL@CAcpController@@QAEXAAVTDesC8@@@Z @ 8 NONAME ; void CAcpController::FetchSisFileFromNetworkL(class TDesC8 &)
	?NewL@CAcpController@@SAPAV1@AAVMAcpControllerObserver@@@Z @ 9 NONAME ; class CAcpController * CAcpController::NewL(class MAcpControllerObserver &)
	?NewLC@CAcpController@@SAPAV1@AAVMAcpControllerObserver@@@Z @ 10 NONAME ; class CAcpController * CAcpController::NewLC(class MAcpControllerObserver &)
	?NotifyParsedProviderL@CAcpController@@UAEXABVCAcpProvider@@@Z @ 11 NONAME ; void CAcpController::NotifyParsedProviderL(class CAcpProvider const &)
	?NotifyParsingCompleted@CAcpController@@UAEXH@Z @ 12 NONAME ; void CAcpController::NotifyParsingCompleted(int)
	?ProviderActivationUrlFromIndexL@CAcpController@@QBE?BVTPtrC8@@H@Z @ 13 NONAME ; class TPtrC8 const CAcpController::ProviderActivationUrlFromIndexL(int) const
	?ProviderBitmapsFromIndexL@CAcpController@@QBEXHAAPAVCFbsBitmap@@0@Z @ 14 NONAME ; void CAcpController::ProviderBitmapsFromIndexL(int, class CFbsBitmap * &, class CFbsBitmap * &) const
	?ProviderCreationUrlFromIndexL@CAcpController@@QBE?BVTPtrC8@@H@Z @ 15 NONAME ; class TPtrC8 const CAcpController::ProviderCreationUrlFromIndexL(int) const
	?ProviderDescriptionFromIndexL@CAcpController@@QBE?BVTPtrC16@@H@Z @ 16 NONAME ; class TPtrC16 const CAcpController::ProviderDescriptionFromIndexL(int) const
	?ProviderIconUrlFromIndexL@CAcpController@@QBE?BVTPtrC8@@H@Z @ 17 NONAME ; class TPtrC8 const CAcpController::ProviderIconUrlFromIndexL(int) const
	?ProviderNameFromIndexL@CAcpController@@QBE?BVTPtrC16@@H@Z @ 18 NONAME ; class TPtrC16 const CAcpController::ProviderNameFromIndexL(int) const
	?ProviderSisUrlFromIndexL@CAcpController@@QBE?BVTPtrC8@@H@Z @ 19 NONAME ; class TPtrC8 const CAcpController::ProviderSisUrlFromIndexL(int) const
	?ProviderTypeFromIndexL@CAcpController@@QBE?BVTPtrC16@@H@Z @ 20 NONAME ; class TPtrC16 const CAcpController::ProviderTypeFromIndexL(int) const
	?SaveActiveIndex@CAcpController@@QAEXH@Z @ 21 NONAME ; void CAcpController::SaveActiveIndex(int)
	?SessionId@CAcpController@@QAEABVTDesC8@@XZ @ 22 NONAME ; class TDesC8 const & CAcpController::SessionId(void)

