EXPORTS
	_ZN12CCSCEngTimer10StartTimerENS_10TTimerTypeE @ 1 NONAME
	_ZN12CCSCEngTimer4NewLER20MCSCEngTimerObserver @ 2 NONAME
	_ZN12CCSCEngTimer9StopTimerEv @ 3 NONAME
	_ZN17CCSCEngCCHHandler14DisableServiceEi @ 4 NONAME
	_ZN17CCSCEngCCHHandler15IsServiceValidLEi @ 5 NONAME
	_ZN17CCSCEngCCHHandler17IsServiceDisabledEi @ 6 NONAME
	_ZN17CCSCEngCCHHandler21SupportedSubServicesLEiR21TSupportedSubServices @ 7 NONAME
	_ZN17CCSCEngCCHHandler22GetConnectionParameterEi23TCchConnectionParameterR6RBuf16 @ 8 NONAME
	_ZN17CCSCEngCCHHandler22GetConnectionParameterEi23TCchConnectionParameterRi @ 9 NONAME
	_ZN17CCSCEngCCHHandler22SetConnectionParameterEi23TCchConnectionParameterRK7TDesC16 @ 10 NONAME
	_ZN17CCSCEngCCHHandler4NewLER18MCSCEngCCHObserver @ 11 NONAME
	_ZN21CCSCEngServiceHandler10IsSipVoIPLEj @ 12 NONAME
	_ZN21CCSCEngServiceHandler12ServiceNameLEj @ 13 NONAME
	_ZN21CCSCEngServiceHandler13ImSettingsIdLEj @ 14 NONAME
	_ZN21CCSCEngServiceHandler14DeleteServiceLEj @ 15 NONAME
	_ZN21CCSCEngServiceHandler15IsVccSupportedLEj @ 16 NONAME
	_ZN21CCSCEngServiceHandler15ServiceIdCountLEv @ 17 NONAME
	_ZN21CCSCEngServiceHandler16PresenceReqPrefLEj @ 18 NONAME
	_ZN21CCSCEngServiceHandler16SetImSettingsIdLEji @ 19 NONAME
	_ZN21CCSCEngServiceHandler17GetAllServiceIdsLER6RArrayIjE @ 20 NONAME
	_ZN21CCSCEngServiceHandler17ServiceTabViewIdLEj @ 21 NONAME
	_ZN21CCSCEngServiceHandler19SetPresenceReqPrefLEj6TOnOff @ 22 NONAME
	_ZN21CCSCEngServiceHandler21ServiceSetupPluginIdLEj @ 23 NONAME
	_ZN21CCSCEngServiceHandler22HandoverNotifTonePrefLEj @ 24 NONAME
	_ZN21CCSCEngServiceHandler25SetHandoverNotifTonePrefLEj6TOnOff @ 25 NONAME
	_ZN21CCSCEngServiceHandler4NewLEP22MCSCEngServiceObserver @ 26 NONAME
	_ZN21CCSCEngServiceHandler7SnapIdLEj @ 27 NONAME
	_ZN21CCSCEngServiceHandler8BrandIdLEjR6TDes16 @ 28 NONAME
	_ZN21CCSCEngStartupHandler14ResetServiceIdEv @ 29 NONAME
	_ZN21CCSCEngStartupHandler21SetStartupParametersLERK7TDesC16 @ 30 NONAME
	_ZN21CCSCEngStartupHandler24SetStartedFromHomescreenEi @ 31 NONAME
	_ZN21CCSCEngStartupHandler4NewLEv @ 32 NONAME
	_ZN21CCSCEngStartupHandler8ResetUidENS_8TUidTypeE @ 33 NONAME
	_ZN22CCSCEngBrandingHandler20GetServiceBrandIconLERK6TDesC8RP10CFbsBitmapS5_i @ 34 NONAME
	_ZN22CCSCEngBrandingHandler4NewLEv @ 35 NONAME
	_ZN24CCSCEngConnectionHandler29StopListeningConnectionEventsEv @ 36 NONAME
	_ZN24CCSCEngConnectionHandler30StartListeningConnectionEventsEv @ 37 NONAME
	_ZN24CCSCEngConnectionHandler4NewLER25MCSCEngConnectionObserver @ 38 NONAME
	_ZN26CCSCEngDestinationsHandler12IsSnapInUseLEm @ 39 NONAME
	_ZN26CCSCEngDestinationsHandler17AvailableSnapIdsLER6RArrayImE @ 40 NONAME
	_ZN26CCSCEngDestinationsHandler4NewLEv @ 41 NONAME
	_ZN26CCSCEngDestinationsHandler9SnapNameLEm @ 42 NONAME
	_ZN27CCSCEngServicePluginHandler13DoRemovationLERK4TUidi @ 43 NONAME
	_ZN27CCSCEngServicePluginHandler15DoProvisioningLERK4TUidS2_ @ 44 NONAME
	_ZN27CCSCEngServicePluginHandler17LaunchPluginViewLERK4TUidS2_ @ 45 NONAME
	_ZN27CCSCEngServicePluginHandler18InitializePluginsLEv @ 46 NONAME
	_ZN27CCSCEngServicePluginHandler23ItemFromPluginInfoArrayEi @ 47 NONAME
	_ZN27CCSCEngServicePluginHandler4NewLER9CEikonEnvR27MCSCEngProvisioningObserverR21CCSCEngServiceHandler @ 48 NONAME
	_ZN27CCSCEngServicePluginHandler5NewLCER9CEikonEnvR27MCSCEngProvisioningObserverR21CCSCEngServiceHandler @ 49 NONAME
	_ZN31CCSCEngUiExtensionPluginHandler18InitializePluginsLEv @ 50 NONAME
	_ZN31CCSCEngUiExtensionPluginHandler18LaunchUiExtensionLERK4TUidS2_i @ 51 NONAME
	_ZN31CCSCEngUiExtensionPluginHandler23ItemFromPluginInfoArrayEi @ 52 NONAME
	_ZN31CCSCEngUiExtensionPluginHandler4NewLER9CEikonEnvR26MCSCEngUiExtensionObserverR21CCSCEngStartupHandler @ 53 NONAME
	_ZN31CCSCEngUiExtensionPluginHandler5NewLCER9CEikonEnvR26MCSCEngUiExtensionObserverR21CCSCEngStartupHandler @ 54 NONAME
	_ZNK21CCSCEngServiceHandler18IsPreferredServiceEj @ 55 NONAME
	_ZNK21CCSCEngServiceHandler22SetVoipAsPrefTelephonyEij @ 56 NONAME
	_ZNK21CCSCEngServiceHandler24IsPreferredTelephonyVoipEv @ 57 NONAME
	_ZNK21CCSCEngStartupHandler11GetParamUrlER6TDes16 @ 58 NONAME
	_ZNK21CCSCEngStartupHandler14GetParamActionEv @ 59 NONAME
	_ZNK21CCSCEngStartupHandler14GetParamAppUidEv @ 60 NONAME
	_ZNK21CCSCEngStartupHandler17GetParamPluginUidEv @ 61 NONAME
	_ZNK21CCSCEngStartupHandler17GetParamServiceIdEv @ 62 NONAME
	_ZNK21CCSCEngStartupHandler21StartedFromHomescreenEv @ 63 NONAME
	_ZNK27CCSCEngServicePluginHandler11PluginCountENS_12TPluginCountE @ 64 NONAME
	_ZNK31CCSCEngUiExtensionPluginHandler11PluginCountEv @ 65 NONAME

