EXPORTS
	??1CRCSEAudioCodecEntry@@UAE@XZ @ 1 NONAME ; CRCSEAudioCodecEntry::~CRCSEAudioCodecEntry(void)
	??1CRCSEAudioCodecRegistry@@UAE@XZ @ 2 NONAME ; CRCSEAudioCodecRegistry::~CRCSEAudioCodecRegistry(void)
	??1CRCSEChangeNotifier@@UAE@XZ @ 3 NONAME ; CRCSEChangeNotifier::~CRCSEChangeNotifier(void)
	??1CRCSEProfileEntry@@UAE@XZ @ 4 NONAME ; CRCSEProfileEntry::~CRCSEProfileEntry(void)
	??1CRCSEProfileRegistry@@UAE@XZ @ 5 NONAME ; CRCSEProfileRegistry::~CRCSEProfileRegistry(void)
	?AddL@CRCSEAudioCodecRegistry@@QAEKABVCRCSEAudioCodecEntry@@@Z @ 6 NONAME ; unsigned long CRCSEAudioCodecRegistry::AddL(class CRCSEAudioCodecEntry const &)
	?AddL@CRCSEProfileRegistry@@QAEKABVCRCSEProfileEntry@@@Z @ 7 NONAME ; unsigned long CRCSEProfileRegistry::AddL(class CRCSEProfileEntry const &)
	?CancelNotify@CRCSEChangeNotifier@@QAEXXZ @ 8 NONAME ; void CRCSEChangeNotifier::CancelNotify(void)
	?DeleteL@CRCSEAudioCodecRegistry@@QAEXK@Z @ 9 NONAME ; void CRCSEAudioCodecRegistry::DeleteL(unsigned long)
	?DeleteL@CRCSEProfileRegistry@@QAEXK@Z @ 10 NONAME ; void CRCSEProfileRegistry::DeleteL(unsigned long)
	?FindBySIPProfileIdL@CRCSEProfileRegistry@@QAEXKAAV?$RPointerArray@VCRCSEProfileEntry@@@@@Z @ 11 NONAME ; void CRCSEProfileRegistry::FindBySIPProfileIdL(unsigned long, class RPointerArray<class CRCSEProfileEntry> &)
	?FindByServiceIdL@CRCSEProfileRegistry@@QAEXKAAV?$RPointerArray@VCRCSEProfileEntry@@@@@Z @ 12 NONAME ; void CRCSEProfileRegistry::FindByServiceIdL(unsigned long, class RPointerArray<class CRCSEProfileEntry> &)
	?FindL@CRCSEAudioCodecRegistry@@QAEXKAAVCRCSEAudioCodecEntry@@@Z @ 13 NONAME ; void CRCSEAudioCodecRegistry::FindL(unsigned long, class CRCSEAudioCodecEntry &)
	?FindL@CRCSEProfileRegistry@@QAEXABVTDesC16@@AAVCRCSEProfileEntry@@@Z @ 14 NONAME ; void CRCSEProfileRegistry::FindL(class TDesC16 const &, class CRCSEProfileEntry &)
	?FindL@CRCSEProfileRegistry@@QAEXKAAVCRCSEProfileEntry@@@Z @ 15 NONAME ; void CRCSEProfileRegistry::FindL(unsigned long, class CRCSEProfileEntry &)
	?GetAllCodecIdsL@CRCSEAudioCodecRegistry@@QAEXAAV?$RArray@K@@@Z @ 16 NONAME ; void CRCSEAudioCodecRegistry::GetAllCodecIdsL(class RArray<unsigned long> &)
	?GetAllIdsL@CRCSEProfileRegistry@@QAEXAAV?$RArray@K@@@Z @ 17 NONAME ; void CRCSEProfileRegistry::GetAllIdsL(class RArray<unsigned long> &)
	?GetDefaultCodec@CRCSEAudioCodecRegistry@@QBEXAAVCRCSEAudioCodecEntry@@@Z @ 18 NONAME ; void CRCSEAudioCodecRegistry::GetDefaultCodec(class CRCSEAudioCodecEntry &) const
	?GetDefaultProfile@CRCSEProfileRegistry@@QBEXAAVCRCSEProfileEntry@@@Z @ 19 NONAME ; void CRCSEProfileRegistry::GetDefaultProfile(class CRCSEProfileEntry &) const
	?NewL@CRCSEAudioCodecEntry@@SAPAV1@XZ @ 20 NONAME ; class CRCSEAudioCodecEntry * CRCSEAudioCodecEntry::NewL(void)
	?NewL@CRCSEAudioCodecRegistry@@SAPAV1@XZ @ 21 NONAME ; class CRCSEAudioCodecRegistry * CRCSEAudioCodecRegistry::NewL(void)
	?NewL@CRCSEChangeNotifier@@SAPAV1@ABVTDesC16@@@Z @ 22 NONAME ; class CRCSEChangeNotifier * CRCSEChangeNotifier::NewL(class TDesC16 const &)
	?NewL@CRCSEProfileEntry@@SAPAV1@XZ @ 23 NONAME ; class CRCSEProfileEntry * CRCSEProfileEntry::NewL(void)
	?NewL@CRCSEProfileRegistry@@SAPAV1@XZ @ 24 NONAME ; class CRCSEProfileRegistry * CRCSEProfileRegistry::NewL(void)
	?NewLC@CRCSEAudioCodecEntry@@SAPAV1@XZ @ 25 NONAME ; class CRCSEAudioCodecEntry * CRCSEAudioCodecEntry::NewLC(void)
	?NewLC@CRCSEAudioCodecRegistry@@SAPAV1@XZ @ 26 NONAME ; class CRCSEAudioCodecRegistry * CRCSEAudioCodecRegistry::NewLC(void)
	?NewLC@CRCSEProfileEntry@@SAPAV1@XZ @ 27 NONAME ; class CRCSEProfileEntry * CRCSEProfileEntry::NewLC(void)
	?NewLC@CRCSEProfileRegistry@@SAPAV1@XZ @ 28 NONAME ; class CRCSEProfileRegistry * CRCSEProfileRegistry::NewLC(void)
	?NotifyChange@CRCSEChangeNotifier@@QAEXAAVTRequestStatus@@@Z @ 29 NONAME ; void CRCSEChangeNotifier::NotifyChange(class TRequestStatus &)
	?SetDefaultCodecValueSet@CRCSEAudioCodecEntry@@QAEXVTPtrC16@@@Z @ 30 NONAME ; void CRCSEAudioCodecEntry::SetDefaultCodecValueSet(class TPtrC16)
	?UpdateL@CRCSEAudioCodecRegistry@@QAEXKABVCRCSEAudioCodecEntry@@@Z @ 31 NONAME ; void CRCSEAudioCodecRegistry::UpdateL(unsigned long, class CRCSEAudioCodecEntry const &)
	?UpdateL@CRCSEProfileRegistry@@QAEXKABVCRCSEProfileEntry@@@Z @ 32 NONAME ; void CRCSEProfileRegistry::UpdateL(unsigned long, class CRCSEProfileEntry const &)

