EXPORTS
	_ZN13CVccHoTrigger13HoNotAllowedLEv @ 1 NONAME
	_ZN13CVccHoTrigger19ManualHoCallStartedEv @ 2 NONAME
	_ZN13CVccHoTrigger20ManualHoCallReleasedEv @ 3 NONAME
	_ZN13CVccHoTrigger20SetCurrentDomainTypeENS_15TCallDomainTypeE @ 4 NONAME
	_ZN13CVccHoTrigger22SetPreferredDomainTypeE27TVccHoPolicyPreferredDomain @ 5 NONAME
	_ZN13CVccHoTrigger26SetImmediateDomainTransferEi @ 6 NONAME
	_ZN13CVccHoTrigger4NewLEv @ 7 NONAME
	_ZN13CVccHoTrigger4StopER13CVccPerformer @ 8 NONAME
	_ZN13CVccHoTrigger4StopEv @ 9 NONAME
	_ZN13CVccHoTrigger5StartER13CVccPerformeri @ 10 NONAME
	_ZN13CVccHoTrigger9HoAllowedEv @ 11 NONAME
	_ZTI13CVccHoTrigger @ 12 NONAME ; #<TI>#
	_ZTI14CVccCchMonitor @ 13 NONAME ; #<TI>#
	_ZTI17CVccEngPsProperty @ 14 NONAME ; #<TI>#
	_ZTI18CVccHoPolicyReader @ 15 NONAME ; #<TI>#
	_ZTI20CVccGsmNotifications @ 16 NONAME ; #<TI>#
	_ZTI22CVccSignalLevelHandler @ 17 NONAME ; #<TI>#
	_ZTI25CVccGsmSignalLevelHandler @ 18 NONAME ; #<TI>#
	_ZTI26CVccWlanSignalLevelHandler @ 19 NONAME ; #<TI>#
	_ZTV13CVccHoTrigger @ 20 NONAME ; #<VT>#
	_ZTV14CVccCchMonitor @ 21 NONAME ; #<VT>#
	_ZTV17CVccEngPsProperty @ 22 NONAME ; #<VT>#
	_ZTV18CVccHoPolicyReader @ 23 NONAME ; #<VT>#
	_ZTV20CVccGsmNotifications @ 24 NONAME ; #<VT>#
	_ZTV22CVccSignalLevelHandler @ 25 NONAME ; #<VT>#
	_ZTV25CVccGsmSignalLevelHandler @ 26 NONAME ; #<VT>#
	_ZTV26CVccWlanSignalLevelHandler @ 27 NONAME ; #<VT>#
	_ZN13CVccHoTrigger37ReadHoAllowedWhenCsOriginatedSettingLEv @ 28 NONAME

