EXPORTS
	_ZN17CRCSEProfileEntry4NewLEv @ 1 NONAME
	_ZN17CRCSEProfileEntry5NewLCEv @ 2 NONAME
	_ZN17CRCSEProfileEntryD0Ev @ 3 NONAME
	_ZN17CRCSEProfileEntryD1Ev @ 4 NONAME
	_ZN17CRCSEProfileEntryD2Ev @ 5 NONAME
	_ZN19CRCSEChangeNotifier12CancelNotifyEv @ 6 NONAME
	_ZN19CRCSEChangeNotifier12NotifyChangeER14TRequestStatus @ 7 NONAME
	_ZN19CRCSEChangeNotifier4NewLERK7TDesC16 @ 8 NONAME
	_ZN19CRCSEChangeNotifierD0Ev @ 9 NONAME
	_ZN19CRCSEChangeNotifierD1Ev @ 10 NONAME
	_ZN19CRCSEChangeNotifierD2Ev @ 11 NONAME
	_ZN20CRCSEAudioCodecEntry23SetDefaultCodecValueSetE7TPtrC16 @ 12 NONAME
	_ZN20CRCSEAudioCodecEntry4NewLEv @ 13 NONAME
	_ZN20CRCSEAudioCodecEntry5NewLCEv @ 14 NONAME
	_ZN20CRCSEAudioCodecEntryD0Ev @ 15 NONAME
	_ZN20CRCSEAudioCodecEntryD1Ev @ 16 NONAME
	_ZN20CRCSEAudioCodecEntryD2Ev @ 17 NONAME
	_ZN20CRCSEProfileRegistry10GetAllIdsLER6RArrayImE @ 18 NONAME
	_ZN20CRCSEProfileRegistry16FindByServiceIdLEmR13RPointerArrayI17CRCSEProfileEntryE @ 19 NONAME
	_ZN20CRCSEProfileRegistry19FindBySIPProfileIdLEmR13RPointerArrayI17CRCSEProfileEntryE @ 20 NONAME
	_ZN20CRCSEProfileRegistry4AddLERK17CRCSEProfileEntry @ 21 NONAME
	_ZN20CRCSEProfileRegistry4NewLEv @ 22 NONAME
	_ZN20CRCSEProfileRegistry5FindLERK7TDesC16R17CRCSEProfileEntry @ 23 NONAME
	_ZN20CRCSEProfileRegistry5FindLEmR17CRCSEProfileEntry @ 24 NONAME
	_ZN20CRCSEProfileRegistry5NewLCEv @ 25 NONAME
	_ZN20CRCSEProfileRegistry7DeleteLEm @ 26 NONAME
	_ZN20CRCSEProfileRegistry7UpdateLEmRK17CRCSEProfileEntry @ 27 NONAME
	_ZN20CRCSEProfileRegistryD0Ev @ 28 NONAME
	_ZN20CRCSEProfileRegistryD1Ev @ 29 NONAME
	_ZN20CRCSEProfileRegistryD2Ev @ 30 NONAME
	_ZN23CRCSEAudioCodecRegistry15GetAllCodecIdsLER6RArrayImE @ 31 NONAME
	_ZN23CRCSEAudioCodecRegistry4AddLERK20CRCSEAudioCodecEntry @ 32 NONAME
	_ZN23CRCSEAudioCodecRegistry4NewLEv @ 33 NONAME
	_ZN23CRCSEAudioCodecRegistry5FindLEmR20CRCSEAudioCodecEntry @ 34 NONAME
	_ZN23CRCSEAudioCodecRegistry5NewLCEv @ 35 NONAME
	_ZN23CRCSEAudioCodecRegistry7DeleteLEm @ 36 NONAME
	_ZN23CRCSEAudioCodecRegistry7UpdateLEmRK20CRCSEAudioCodecEntry @ 37 NONAME
	_ZN23CRCSEAudioCodecRegistryD0Ev @ 38 NONAME
	_ZN23CRCSEAudioCodecRegistryD1Ev @ 39 NONAME
	_ZN23CRCSEAudioCodecRegistryD2Ev @ 40 NONAME
	_ZNK20CRCSEProfileRegistry17GetDefaultProfileER17CRCSEProfileEntry @ 41 NONAME
	_ZNK23CRCSEAudioCodecRegistry15GetDefaultCodecER20CRCSEAudioCodecEntry @ 42 NONAME
	_ZTI15CRCSEDbImporter @ 43 NONAME ; #<TI>#
	_ZTI17CRCSEProfileEntry @ 44 NONAME ; #<TI>#
	_ZTI17CRCSERegistryBase @ 45 NONAME ; #<TI>#
	_ZTI19CRCSEChangeNotifier @ 46 NONAME ; #<TI>#
	_ZTI20CRCSEAudioCodecEntry @ 47 NONAME ; #<TI>#
	_ZTI20CRCSEProfileRegistry @ 48 NONAME ; #<TI>#
	_ZTI23CRCSEAudioCodecRegistry @ 49 NONAME ; #<TI>#
	_ZTV15CRCSEDbImporter @ 50 NONAME ; #<VT>#
	_ZTV17CRCSEProfileEntry @ 51 NONAME ; #<VT>#
	_ZTV17CRCSERegistryBase @ 52 NONAME ; #<VT>#
	_ZTV19CRCSEChangeNotifier @ 53 NONAME ; #<VT>#
	_ZTV20CRCSEAudioCodecEntry @ 54 NONAME ; #<VT>#
	_ZTV20CRCSEProfileRegistry @ 55 NONAME ; #<VT>#
	_ZTV23CRCSEAudioCodecRegistry @ 56 NONAME ; #<VT>#

