EXPORTS
	?SetDtCsToPsAllowedL@CVccSPSettings@@QAEXABVTDesC16@@@Z @ 1 NONAME ; void CVccSPSettings::SetDtCsToPsAllowedL(class TDesC16 const &)
	?FindPropertyL@CVccSPSettings@@QAEHIW4TServicePropertyName@@AAVCSPProperty@@@Z @ 2 NONAME ; int CVccSPSettings::FindPropertyL(unsigned int, enum TServicePropertyName, class CSPProperty &)
	?FindServiceEntryL@CVccSPSettings@@QAEXABVTDesC16@@AAVCSPEntry@@@Z @ 3 NONAME ; void CVccSPSettings::FindServiceEntryL(class TDesC16 const &, class CSPEntry &)
	?SetDtCsHoTresholdL@CVccSPSettings@@QAEXABVTDesC16@@@Z @ 4 NONAME ; void CVccSPSettings::SetDtCsHoTresholdL(class TDesC16 const &)
	?SetDtWlanHoHysteresisTimerLowL@CVccSPSettings@@QAEXABVTDesC16@@@Z @ 5 NONAME ; void CVccSPSettings::SetDtWlanHoHysteresisTimerLowL(class TDesC16 const &)
	?SetDtHeldWaitingCallsAllowedL@CVccSPSettings@@QAEXABVTDesC16@@@Z @ 6 NONAME ; void CVccSPSettings::SetDtHeldWaitingCallsAllowedL(class TDesC16 const &)
	?VoipServiceId@CVccSPSettings@@QAEHXZ @ 7 NONAME ; int CVccSPSettings::VoipServiceId(void)
	?ProviderId@CVccSPSettings@@QAEABVTDesC16@@XZ @ 8 NONAME ; class TDesC16 const & CVccSPSettings::ProviderId(void)
	?PreferredDomainL@CVccSPSettings@@QAEHXZ @ 9 NONAME ; int CVccSPSettings::PreferredDomainL(void)
	?SetDtWlanHoTresholdL@CVccSPSettings@@QAEXABVTDesC16@@@Z @ 10 NONAME ; void CVccSPSettings::SetDtWlanHoTresholdL(class TDesC16 const &)
	?PsHoTresholdL@CVccSPSettings@@QAEHXZ @ 11 NONAME ; int CVccSPSettings::PsHoTresholdL(void)
	??1CVccSPSettings@@UAE@XZ @ 12 NONAME ; CVccSPSettings::~CVccSPSettings(void)
	?CsHoHysteresisTimerHighL@CVccSPSettings@@QAEHXZ @ 13 NONAME ; int CVccSPSettings::CsHoHysteresisTimerHighL(void)
	?SetProviderIdL@CVccSPSettings@@QAEXABVTDesC16@@@Z @ 14 NONAME ; void CVccSPSettings::SetProviderIdL(class TDesC16 const &)
	?SetImmediateDtL@CVccSPSettings@@QAEXABVTDesC16@@@Z @ 15 NONAME ; void CVccSPSettings::SetImmediateDtL(class TDesC16 const &)
	?PsHoHysteresisTimerHighL@CVccSPSettings@@QAEHXZ @ 16 NONAME ; int CVccSPSettings::PsHoHysteresisTimerHighL(void)
	?SetDtCsHoHysteresisTimerHighL@CVccSPSettings@@QAEXABVTDesC16@@@Z @ 17 NONAME ; void CVccSPSettings::SetDtCsHoHysteresisTimerHighL(class TDesC16 const &)
	?SetVoipServiceIdL@CVccSPSettings@@QAEXABVTDesC16@@@Z @ 18 NONAME ; void CVccSPSettings::SetVoipServiceIdL(class TDesC16 const &)
	?SetPreferredDomainL@CVccSPSettings@@QAEXABVTDesC16@@@Z @ 19 NONAME ; void CVccSPSettings::SetPreferredDomainL(class TDesC16 const &)
	?DtAllowedWhenCsOriginatedL@CVccSPSettings@@QAEHXZ @ 20 NONAME ; int CVccSPSettings::DtAllowedWhenCsOriginatedL(void)
	?SetVdnL@CVccSPSettings@@QAEHABVTDesC16@@@Z @ 21 NONAME ; int CVccSPSettings::SetVdnL(class TDesC16 const &)
	?SetDtCsHoHysteresisL@CVccSPSettings@@QAEXABVTDesC16@@@Z @ 22 NONAME ; void CVccSPSettings::SetDtCsHoHysteresisL(class TDesC16 const &)
	?PsHoHysteresisTimerLowL@CVccSPSettings@@QAEHXZ @ 23 NONAME ; int CVccSPSettings::PsHoHysteresisTimerLowL(void)
	?URIValidL@TVCCMiscUtils@@SAHABVTDesC16@@@Z @ 24 NONAME ; int TVCCMiscUtils::URIValidL(class TDesC16 const &)
	?DtHeldWaitingCallsAllowedL@CVccSPSettings@@QAEHXZ @ 25 NONAME ; int CVccSPSettings::DtHeldWaitingCallsAllowedL(void)
	?SetDtWlanHoHysteresisL@CVccSPSettings@@QAEXABVTDesC16@@@Z @ 26 NONAME ; void CVccSPSettings::SetDtWlanHoHysteresisL(class TDesC16 const &)
	?SetVdiL@CVccSPSettings@@QAEHABVTDesC16@@@Z @ 27 NONAME ; int CVccSPSettings::SetVdiL(class TDesC16 const &)
	?SetDtCsHoHysteresisTimerLowL@CVccSPSettings@@QAEXABVTDesC16@@@Z @ 28 NONAME ; void CVccSPSettings::SetDtCsHoHysteresisTimerLowL(class TDesC16 const &)
	?SetServiceNameL@CVccSPSettings@@QAEXABVTDesC16@@@Z @ 29 NONAME ; void CVccSPSettings::SetServiceNameL(class TDesC16 const &)
	?ConvertToIntL@CVccSPSettings@@QAEHABVTDesC16@@@Z @ 30 NONAME ; int CVccSPSettings::ConvertToIntL(class TDesC16 const &)
	?NewL@CVccSPSettings@@SAPAV1@XZ @ 31 NONAME ; class CVccSPSettings * CVccSPSettings::NewL(void)
	?CsHoHysteresisL@CVccSPSettings@@QAEHXZ @ 32 NONAME ; int CVccSPSettings::CsHoHysteresisL(void)
	?CsHoHysteresisTimerLowL@CVccSPSettings@@QAEHXZ @ 33 NONAME ; int CVccSPSettings::CsHoHysteresisTimerLowL(void)
	?DtPsToCsAllowedL@CVccSPSettings@@QAEHXZ @ 34 NONAME ; int CVccSPSettings::DtPsToCsAllowedL(void)
	?SetDtAllowedWhenCsOriginated@CVccSPSettings@@QAEXABVTDesC16@@@Z @ 35 NONAME ; void CVccSPSettings::SetDtAllowedWhenCsOriginated(class TDesC16 const &)
	?ReadSettingsL@CVccSPSettings@@QAEXABVTDesC16@@@Z @ 36 NONAME ; void CVccSPSettings::ReadSettingsL(class TDesC16 const &)
	?SetVoipServiceIdL@CVccSPSettings@@QAEXH@Z @ 37 NONAME ; void CVccSPSettings::SetVoipServiceIdL(int)
	?VDNValidL@TVCCMiscUtils@@SAHABVTDesC16@@@Z @ 38 NONAME ; int TVCCMiscUtils::VDNValidL(class TDesC16 const &)
	?SetDtPsToCsAllowedL@CVccSPSettings@@QAEXABVTDesC16@@@Z @ 39 NONAME ; void CVccSPSettings::SetDtPsToCsAllowedL(class TDesC16 const &)
	?PsHoHysteresisL@CVccSPSettings@@QAEHXZ @ 40 NONAME ; int CVccSPSettings::PsHoHysteresisL(void)
	?DtCsToPsAllowedL@CVccSPSettings@@QAEHXZ @ 41 NONAME ; int CVccSPSettings::DtCsToPsAllowedL(void)
	?ImmediateDtL@CVccSPSettings@@QAEHXZ @ 42 NONAME ; int CVccSPSettings::ImmediateDtL(void)
	?SetDtWlanHoHysteresisTimerHighL@CVccSPSettings@@QAEXABVTDesC16@@@Z @ 43 NONAME ; void CVccSPSettings::SetDtWlanHoHysteresisTimerHighL(class TDesC16 const &)
	?StoreL@CVccSPSettings@@QAEXXZ @ 44 NONAME ; void CVccSPSettings::StoreL(void)
	?CsHoTresholdL@CVccSPSettings@@QAEHXZ @ 45 NONAME ; int CVccSPSettings::CsHoTresholdL(void)
	?ServiceName@CVccSPSettings@@QAEABVTDesC16@@XZ @ 46 NONAME ; class TDesC16 const & CVccSPSettings::ServiceName(void)

